; Function Attrs: mustprogress uwtable
define void @_ZN7Imf_3_421CompositeDeepScanLineC2Ev(ptr noundef nonnull writeonly align 8 captures(none) dereferenceable(16) initializes((0, 16)) %0) unnamed_addr #4 align 2 personality ptr @__gxx_personality_v0 {
  store ptr getelementptr inbounds nuw inrange(-16, 16) (i8, ptr @_ZTVN7Imf_3_421CompositeDeepScanLineE, i64 16), ptr %0, align 8, !tbaa !57
  %2 = tail call noalias noundef nonnull dereferenceable(224) ptr @_Znwm(i64 noundef 224) #28
  %3 = getelementptr inbounds nuw i8, ptr %2, i64 56
  store i32 0, ptr %3, align 8, !tbaa !3
  %4 = getelementptr inbounds nuw i8, ptr %2, i64 64
  store ptr null, ptr %4, align 8, !tbaa !12
  %5 = getelementptr inbounds nuw i8, ptr %2, i64 72
  tail call void @llvm.memset.p0.i64(ptr noundef nonnull align 8 dereferenceable(224) %2, i8 0, i64 48, i1 false)
  store ptr %3, ptr %5, align 8, !tbaa !13
  %6 = getelementptr inbounds nuw i8, ptr %2, i64 80
  store ptr %3, ptr %6, align 8, !tbaa !14
  %7 = getelementptr inbounds nuw i8, ptr %2, i64 88
  store i64 0, ptr %7, align 8, !tbaa !15
  %8 = getelementptr inbounds nuw i8, ptr %2, i64 96
  store i8 0, ptr %8, align 8, !tbaa !16
  %9 = getelementptr inbounds nuw i8, ptr %2, i64 104
  %10 = getelementptr inbounds nuw i8, ptr %2, i64 152
  tail call void @llvm.memset.p0.i64(ptr noundef nonnull align 8 dereferenceable(48) %9, i8 0, i64 48, i1 false)
  store i32 2147483647, ptr %10, align 4, !tbaa !55
  %11 = getelementptr inbounds nuw i8, ptr %2, i64 156
  store i32 2147483647, ptr %11, align 4, !tbaa !56
  %12 = getelementptr inbounds nuw i8, ptr %2, i64 160
  store i32 -2147483648, ptr %12, align 4, !tbaa !55
  %13 = getelementptr inbounds nuw i8, ptr %2, i64 164
  store i32 -2147483648, ptr %13, align 4, !tbaa !56
  %14 = getelementptr inbounds nuw i8, ptr %2, i64 168
  tail call void @llvm.memset.p0.i64(ptr noundef nonnull align 8 dereferenceable(56) %14, i8 0, i64 56, i1 false)
  %15 = getelementptr inbounds nuw i8, ptr %0, i64 8
  store ptr %2, ptr %15, align 8, !tbaa !59
  ret void
}